; Function Attrs: mustprogress nofree norecurse nosync nounwind willreturn memory(argmem: readwrite) uwtable
define hidden void @Curl_init_CONNECT(ptr noundef captures(none) initializes((4544, 4560)) %0) local_unnamed_addr #3 {
  %2 = getelementptr inbounds nuw i8, ptr %0, i64 584
  %3 = load ptr, ptr %2, align 8, !tbaa !118
  %4 = getelementptr inbounds nuw i8, ptr %0, i64 4544
  store ptr %3, ptr %4, align 8, !tbaa !119
  %5 = getelementptr inbounds nuw i8, ptr %0, i64 496
  %6 = load ptr, ptr %5, align 8, !tbaa !120
  %7 = getelementptr inbounds nuw i8, ptr %0, i64 4552
  store ptr %6, ptr %7, align 8, !tbaa !121
  %8 = getelementptr inbounds nuw i8, ptr %0, i64 5034
  %9 = load i8, ptr %8, align 2, !tbaa !122
  %10 = icmp eq i8 %9, 4
  %11 = getelementptr inbounds nuw i8, ptr %0, i64 5036
  %12 = load i32, ptr %11, align 4
  %13 = select i1 %10, i32 524288, i32 0
  %14 = and i32 %12, -524289
  %15 = or disjoint i32 %14, %13
  store i32 %15, ptr %11, align 4
  ret void
}